(iclasses
Index
p0
(dp1
S'wordToUrls'
p2
(dp3
S''
p4
(lp5
S'./test/crystal_meth.txt'
p6
ag6
ag6
aS'./test/test_recursivity/recursivity_1.txt'
p7
aS'./test/test_recursivity/recursivity_again/again_and_again.MD'
p8
aS'./test/test_recursivity/recursivity_here/here_too.txt'
p9
asS'roi'
p10
(lp11
S'./test/echecs.txt'
p12
ag12
asS'dinfliger'
p13
(lp14
g12
asS'peut'
p15
(lp16
g6
asS'fous'
p17
(lp18
g12
asS'jouent'
p19
(lp20
g12
asS'tours'
p21
(lp22
g12
asS'noirs'
p23
(lp24
g12
asS'sombres'
p25
(lp26
g12
ag12
asS'bonjour'
p27
(lp28
S'./test/1.txt'
p29
asS'le'
p30
(lp31
g29
ag12
ag12
ag12
ag12
ag12
asS'presente'
p32
(lp33
g6
asS'la'
p34
(lp35
g6
ag6
ag6
asS'pile'
p36
(lp37
g6
asS'4'
p38
(lp39
g6
asS'cavaliers'
p40
(lp41
g12
asS'de'
p42
(lp43
g29
ag6
ag6
ag6
ag6
ag12
ag12
ag12
ag12
ag12
asS'possible'
p44
(lp45
g12
asS'pions'
p46
(lp47
g12
asS'differents'
p48
(lp49
S'./test/2.md'
p50
asS'sont'
p51
(lp52
S'./test/3.TXT'
p53
ag53
asS'dy'
p54
(lp55
g12
asS'du'
p56
(lp57
g6
ag12
asS'sans'
p58
(lp59
g12
asS'blanches'
p60
(lp61
g12
asS'en'
p62
(lp63
g12
ag12
ag12
asS'soixantequatre'
p64
(lp65
g12
asS'rappeler'
p66
(lp67
g6
asS'et'
p68
(lp69
g6
ag6
ag12
ag12
ag12
ag12
ag12
asS'ici'
p70
(lp71
g50
ag53
asS'est'
p72
(lp73
g6
ag12
ag12
asS'claires'
p74
(lp75
g12
ag12
asS'cristalline'
p76
(lp77
g6
asS'ice'
p78
(lp79
g6
asS'forte'
p80
(lp81
g6
asS'chaque'
p82
(lp83
g12
asS'hautement'
p84
(lp85
g6
asS'dautre'
p86
(lp87
g12
asS'methamphetamine'
p88
(lp89
g6
ag6
asS'leurs'
p90
(lp91
g12
asS'denomination'
p92
(lp93
g6
ag6
asS'essayons'
p94
(lp95
g50
asS'les'
p96
(lp97
g53
ag12
ag12
ag12
asS'qui'
p98
(lp99
g53
ag6
asS'je'
p100
(lp101
g29
asS'compose'
p102
(lp103
g12
asS'parentheses'
p104
(lp105
g53
asS'forme'
p106
(lp107
g6
asS'roque'
p108
(lp109
g12
asS'tour'
p110
(lp111
g12
asS'base'
p112
(lp113
g29
asS'oppose'
p114
(lp115
g12
asS'generalement'
p116
(lp117
g6
asS'echiquier'
p118
(lp119
g12
asS'ou'
p120
(lp121
g6
ag12
ag12
asS'inodore'
p122
(lp123
g6
asS'depart'
p124
(lp125
g12
asS'fumee'
p126
(lp127
g6
asS'ce'
p128
(lp129
g53
asS'son'
p130
(lp131
g12
asS'lune'
p132
(lp133
g12
asS'huit'
p134
(lp135
g12
asS'suis'
p136
(lp137
g29
asS'echec'
p138
(lp139
g12
asS'dun'
p140
(lp141
g12
ag12
asS'jeu'
p142
(lp143
g12
ag12
asS'possede'
p144
(lp145
g12
asS'euphorie'
p146
(lp147
g6
asS'nommees'
p148
(lp149
g12
asS'stimulation'
p150
(lp151
g6
asS'deplacant'
p152
(lp153
g12
asS'glace'
p154
(lp155
g6
asS'quil'
p156
(lp157
g12
asS'noires'
p158
(lp159
g12
asS'plateau'
p160
(lp161
g12
asS'une'
p162
(lp163
g6
ag6
ag6
ag6
ag6
ag12
ag12
asS'adversaire'
p164
(lp165
g12
asS'psychostimulante'
p166
(lp167
g6
asS'tablier'
p168
(lp169
g12
asS'eeau'
p170
(lp171
g50
asS'but'
p172
(lp173
g12
asS'dechecs'
p174
(lp175
g12
asS'part'
p176
(lp177
g12
asS'cases'
p178
(lp179
g12
ag12
ag12
asS'provoque'
p180
(lp181
g6
asS'cas'
p182
(lp183
g12
asS'des'
p184
(lp185
g12
ag12
asS'dans'
p186
(lp187
g6
ag12
asS'pour'
p188
(lp189
g12
ag12
asS'crystal'
p190
(lp191
g6
asS'sous'
p192
(lp193
g6
asS'un'
p194
(lp195
g12
ag12
asS'mentalepure'
p196
(lp197
g6
asS'situation'
p198
(lp199
g12
asS'dame'
p200
(lp201
g12
asS'addictive'
p202
(lp203
g6
asS'remedier'
p204
(lp205
g12
asS'accents'
p206
(lp207
g50
asS'pieces'
p208
(lp209
g12
ag12
asS'soit'
p210
(lp211
g12
asS'au'
p212
(lp213
g12
asS'incolore'
p214
(lp215
g6
asS'joueurs'
p216
(lp217
g12
ag12
asS'role'
p218
(lp219
g12
asS'deux'
p220
(lp221
g12
ag12
ag12
ag12
ag12
asS'test'
p222
(lp223
g29
asS'drogue'
p224
(lp225
g6
asS'prise'
p226
(lp227
g12
asS'blancs'
p228
(lp229
g12
asS'verre'
p230
(lp231
g6
asS'consomme'
p232
(lp233
g6
asS'joueur'
p234
(lp235
g12
ag12
asS'mat'
p236
(lp237
g12
asS'elle'
p238
(lp239
g6
ag6
asS'synthese'
p240
(lp241
g6
asS'laquelle'
p242
(lp243
g12
asS'a'
p244
(lp245
g12
ag12
asS'appele'
p246
(lp247
g12
asS'solide'
p248
(lp249
g6
asS'seize'
p250
(lp251
g12
asS'essayees'
p252
(lp253
g53
asS'camp'
p254
(lp255
g12
ag12
asS'pipe'
p256
(lp257
g6
asS'nous'
p258
(lp259
g50
asS'sa'
p260
(lp261
g6
ag6
asS'se'
p262
(lp263
g6
ag6
asS'dou'
p264
(lp265
g6
ag6
assb.