(iclasses
Index
p0
(dp1
S'wordToUrls'
p2
(dp3
S''
p4
(lp5
S'./test/crystal_meth.txt'
p6
ag6
ag6
aS'./test/test_recursivity/recursivity_1.txt'
p7
aS'./test/test_recursivity/recursivity_again/again_and_again.MD'
p8
aS'./test/test_recursivity/recursivity_here/here_too.txt'
p9
asS'roi'
p10
(lp11
S'./test/echecs.txt'
p12
ag12
asS'dinfliger'
p13
(lp14
g12
asS'peut'
p15
(lp16
g6
asS'fous'
p17
(lp18
g12
asS'jouent'
p19
(lp20
g12
asS'tours'
p21
(lp22
g12
asS'noirs'
p23
(lp24
g12
asS'sombres'
p25
(lp26
g12
ag12
asS'bonjour'
p27
(lp28
S'./test/1.txt'
p29
asS'le'
p30
(lp31
g12
ag12
ag12
ag12
ag12
ag29
asS'forme'
p32
(lp33
g6
asS'la'
p34
(lp35
g6
ag6
ag6
asS'pile'
p36
(lp37
g6
asS'4'
p38
(lp39
g6
asS'verre'
p40
(lp41
g6
asS'cavaliers'
p42
(lp43
g12
asS'de'
p44
(lp45
g6
ag6
ag6
ag6
ag12
ag12
ag12
ag12
ag12
ag29
asS'possible'
p46
(lp47
g12
asS'pions'
p48
(lp49
g12
asS'differents'
p50
(lp51
S'./test/2.md'
p52
asS'sont'
p53
(lp54
S'./test/3.TXT'
p55
ag55
asS'dy'
p56
(lp57
g12
asS'du'
p58
(lp59
g6
ag12
asS'sans'
p60
(lp61
g12
asS'provoque'
p62
(lp63
g6
asS'dun'
p64
(lp65
g12
ag12
asS'blanches'
p66
(lp67
g12
asS'en'
p68
(lp69
g12
ag12
ag12
asS'consomme'
p70
(lp71
g6
asS'roque'
p72
(lp73
g12
asS'et'
p74
(lp75
g6
ag6
ag12
ag12
ag12
ag12
ag12
asS'ici'
p76
(lp77
g55
ag52
asS'est'
p78
(lp79
g6
ag12
ag12
asS'claires'
p80
(lp81
g12
ag12
asS'cristalline'
p82
(lp83
g6
asS'ice'
p84
(lp85
g6
asS'forte'
p86
(lp87
g6
asS'chaque'
p88
(lp89
g12
asS'hautement'
p90
(lp91
g6
asS'dautre'
p92
(lp93
g12
asS'methamphetamine'
p94
(lp95
g6
ag6
asS'denomination'
p96
(lp97
g6
ag6
asS'essayons'
p98
(lp99
g52
asS'les'
p100
(lp101
g12
ag12
ag12
ag55
asS'qui'
p102
(lp103
g6
ag55
asS'je'
p104
(lp105
g29
asS'compose'
p106
(lp107
g12
asS'parentheses'
p108
(lp109
g55
asS'presente'
p110
(lp111
g6
asS'tour'
p112
(lp113
g12
asS'base'
p114
(lp115
g29
asS'oppose'
p116
(lp117
g12
asS'generalement'
p118
(lp119
g6
asS'echiquier'
p120
(lp121
g12
asS'ou'
p122
(lp123
g6
ag12
ag12
asS'inodore'
p124
(lp125
g6
asS'depart'
p126
(lp127
g12
asS'fumee'
p128
(lp129
g6
asS'ce'
p130
(lp131
g55
asS'son'
p132
(lp133
g12
asS'lune'
p134
(lp135
g12
asS'huit'
p136
(lp137
g12
asS'suis'
p138
(lp139
g29
asS'echec'
p140
(lp141
g12
asS'leurs'
p142
(lp143
g12
asS'jeu'
p144
(lp145
g12
ag12
asS'possede'
p146
(lp147
g12
asS'euphorie'
p148
(lp149
g6
asS'nommees'
p150
(lp151
g12
asS'stimulation'
p152
(lp153
g6
asS'deplacant'
p154
(lp155
g12
asS'glace'
p156
(lp157
g6
asS'quil'
p158
(lp159
g12
asS'noires'
p160
(lp161
g12
asS'plateau'
p162
(lp163
g12
asS'remedier'
p164
(lp165
g12
asS'adversaire'
p166
(lp167
g12
asS'psychostimulante'
p168
(lp169
g6
asS'tablier'
p170
(lp171
g12
asS'eeau'
p172
(lp173
g52
asS'but'
p174
(lp175
g12
asS'dechecs'
p176
(lp177
g12
asS'part'
p178
(lp179
g12
asS'cases'
p180
(lp181
g12
ag12
ag12
asS'rappeler'
p182
(lp183
g6
asS'cas'
p184
(lp185
g12
asS'des'
p186
(lp187
g12
ag12
asS'dans'
p188
(lp189
g6
ag12
asS'pour'
p190
(lp191
g12
ag12
asS'crystal'
p192
(lp193
g6
asS'sous'
p194
(lp195
g6
asS'un'
p196
(lp197
g12
ag12
asS'mentalepure'
p198
(lp199
g6
asS'situation'
p200
(lp201
g12
asS'dame'
p202
(lp203
g12
asS'addictive'
p204
(lp205
g6
asS'accents'
p206
(lp207
g52
asS'pieces'
p208
(lp209
g12
ag12
asS'soit'
p210
(lp211
g12
asS'au'
p212
(lp213
g12
asS'incolore'
p214
(lp215
g6
asS'joueurs'
p216
(lp217
g12
ag12
asS'role'
p218
(lp219
g12
asS'deux'
p220
(lp221
g12
ag12
ag12
ag12
ag12
asS'test'
p222
(lp223
g29
asS'drogue'
p224
(lp225
g6
asS'prise'
p226
(lp227
g12
asS'blancs'
p228
(lp229
g12
asS'une'
p230
(lp231
g6
ag6
ag6
ag6
ag6
ag12
ag12
asS'soixantequatre'
p232
(lp233
g12
asS'joueur'
p234
(lp235
g12
ag12
asS'mat'
p236
(lp237
g12
asS'elle'
p238
(lp239
g6
ag6
asS'synthese'
p240
(lp241
g6
asS'laquelle'
p242
(lp243
g12
asS'a'
p244
(lp245
g12
ag12
asS'appele'
p246
(lp247
g12
asS'solide'
p248
(lp249
g6
asS'seize'
p250
(lp251
g12
asS'essayees'
p252
(lp253
g55
asS'camp'
p254
(lp255
g12
ag12
asS'pipe'
p256
(lp257
g6
asS'nous'
p258
(lp259
g52
asS'sa'
p260
(lp261
g6
ag6
asS'se'
p262
(lp263
g6
ag6
asS'dou'
p264
(lp265
g6
ag6
assb.